; Function Attrs: mustprogress nounwind uwtable
define internal void @_ZN4node9inspector12_GLOBAL__N_122MainThreadSessionState8DispatchESt10unique_ptrIN12v8_inspector12StringBufferESt14default_deleteIS5_EE(ptr nocapture noundef nonnull readonly align 8 dereferenceable(24) %this, ptr nocapture noundef readonly %message) #3 align 2 {
entry:
  %ref.tmp = alloca %"class.v8_inspector::StringView", align 8
  %session_ = getelementptr inbounds i8, ptr %this, i64 16
  %0 = load ptr, ptr %session_, align 8
  %1 = load ptr, ptr %message, align 8
  %vtable = load ptr, ptr %1, align 8
  %vfn = getelementptr inbounds i8, ptr %vtable, i64 16
  %2 = load ptr, ptr %vfn, align 8
  call void %2(ptr nonnull sret(%"class.v8_inspector::StringView") align 8 %ref.tmp, ptr noundef nonnull align 8 dereferenceable(8) %1) #20
  %vtable3 = load ptr, ptr %0, align 8
  %vfn4 = getelementptr inbounds i8, ptr %vtable3, i64 16
  %3 = load ptr, ptr %vfn4, align 8
  call void %3(ptr noundef nonnull align 8 dereferenceable(8) %0, ptr noundef nonnull align 8 dereferenceable(24) %ref.tmp) #20
  ret void
}